target datalayout = "e-m:e-p270:32:32-p271:32:32-p272:64:64-i64:64-i128:128-f80:128-n8:16:32:64-S128"
target triple = "x86_64-pc-linux-gnu"

%struct.RBasic = type { i64, i64 }

; Function Attrs: inlinehint nounwind sspstrong willreturn memory(none) uwtable
define internal zeroext i1 @RB_IMMEDIATE_P(i64 noundef %0) #5 {
  %2 = alloca i64, align 8
  store i64 %0, ptr %2, align 8, !tbaa !7
  %3 = load i64, ptr %2, align 8, !tbaa !7
  %4 = and i64 %3, 7
  %5 = icmp ne i64 %4, 0
  ret i1 %5
}

; Function Attrs: inlinehint nounwind sspstrong willreturn memory(none) uwtable
define internal zeroext i1 @RB_FLONUM_P(i64 noundef %0) #5 {
  %2 = alloca i64, align 8
  store i64 %0, ptr %2, align 8, !tbaa !7
  %3 = load i64, ptr %2, align 8, !tbaa !7
  %4 = and i64 %3, 3
  %5 = icmp eq i64 %4, 2
  ret i1 %5
}

; Function Attrs: inlinehint nounwind sspstrong willreturn memory(read) uwtable
define internal zeroext i1 @RB_DYNAMIC_SYM_P(i64 noundef %0) #4 {
  %2 = alloca i1, align 1
  %3 = alloca i64, align 8
  store i64 %0, ptr %3, align 8, !tbaa !7
  %4 = load i64, ptr %3, align 8, !tbaa !7
  %5 = call zeroext i1 @RB_SPECIAL_CONST_P(i64 noundef %4) #27
  br i1 %5, label %6, label %7

6:                                                ; preds = %1
  store i1 false, ptr %2, align 1
  br label %11

7:                                                ; preds = %1
  %8 = load i64, ptr %3, align 8, !tbaa !7
  %9 = call i32 @RB_BUILTIN_TYPE(i64 noundef %8) #26
  %10 = icmp eq i32 %9, 20
  store i1 %10, ptr %2, align 1
  br label %11

11:                                               ; preds = %7, %6
  %12 = load i1, ptr %2, align 1
  ret i1 %12
}

; Function Attrs: inlinehint nounwind sspstrong willreturn memory(none) uwtable
define internal zeroext i1 @RB_STATIC_SYM_P(i64 noundef %0) #5 {
  %2 = alloca i64, align 8
  %3 = alloca i64, align 8
  store i64 %0, ptr %2, align 8, !tbaa !7
  call void @llvm.lifetime.start.p0(i64 8, ptr %3) #28
  store i64 255, ptr %3, align 8, !tbaa !7
  %4 = load i64, ptr %2, align 8, !tbaa !7
  %5 = and i64 %4, 255
  %6 = icmp eq i64 %5, 12
  call void @llvm.lifetime.end.p0(i64 8, ptr %3) #28
  ret i1 %6
}

; Function Attrs: inlinehint nounwind sspstrong willreturn memory(read) uwtable
define internal i32 @rb_type(i64 noundef %0) #4 {
  %2 = alloca i32, align 4
  %3 = alloca i64, align 8
  store i64 %0, ptr %3, align 8, !tbaa !7
  %4 = load i64, ptr %3, align 8, !tbaa !7
  %5 = call zeroext i1 @RB_SPECIAL_CONST_P(i64 noundef %4) #27
  br i1 %5, label %9, label %6

6:                                                ; preds = %1
  %7 = load i64, ptr %3, align 8, !tbaa !7
  %8 = call i32 @RB_BUILTIN_TYPE(i64 noundef %7) #26
  store i32 %8, ptr %2, align 4
  br label %36

9:                                                ; preds = %1
  %10 = load i64, ptr %3, align 8, !tbaa !7
  %11 = icmp eq i64 %10, 0
  br i1 %11, label %12, label %13

12:                                               ; preds = %9
  store i32 19, ptr %2, align 4
  br label %36

13:                                               ; preds = %9
  %14 = load i64, ptr %3, align 8, !tbaa !7
  %15 = icmp eq i64 %14, 4
  br i1 %15, label %16, label %17

16:                                               ; preds = %13
  store i32 17, ptr %2, align 4
  br label %36

17:                                               ; preds = %13
  %18 = load i64, ptr %3, align 8, !tbaa !7
  %19 = icmp eq i64 %18, 20
  br i1 %19, label %20, label %21

20:                                               ; preds = %17
  store i32 18, ptr %2, align 4
  br label %36

21:                                               ; preds = %17
  %22 = load i64, ptr %3, align 8, !tbaa !7
  %23 = icmp eq i64 %22, 36
  br i1 %23, label %24, label %25

24:                                               ; preds = %21
  store i32 22, ptr %2, align 4
  br label %36

25:                                               ; preds = %21
  %26 = load i64, ptr %3, align 8, !tbaa !7
  %27 = call zeroext i1 @RB_FIXNUM_P(i64 noundef %26) #27
  br i1 %27, label %28, label %29

28:                                               ; preds = %25
  store i32 21, ptr %2, align 4
  br label %36

29:                                               ; preds = %25
  %30 = load i64, ptr %3, align 8, !tbaa !7
  %31 = call zeroext i1 @RB_STATIC_SYM_P(i64 noundef %30) #27
  br i1 %31, label %32, label %33

32:                                               ; preds = %29
  store i32 20, ptr %2, align 4
  br label %36

33:                                               ; preds = %29
  %34 = load i64, ptr %3, align 8, !tbaa !7
  %35 = call zeroext i1 @RB_FLONUM_P(i64 noundef %34) #27
  call void @llvm.assume(i1 %35)
  store i32 4, ptr %2, align 4
  br label %36

36:                                               ; preds = %33, %32, %28, %24, %20, %16, %12, %6
  %37 = load i32, ptr %2, align 4
  ret i32 %37
}

; Function Attrs: inlinehint nounwind sspstrong willreturn memory(read) uwtable
define internal i32 @RB_BUILTIN_TYPE(i64 noundef %0) #4 {
  %2 = alloca i64, align 8
  %3 = alloca i64, align 8
  store i64 %0, ptr %2, align 8, !tbaa !7
  call void @llvm.lifetime.start.p0(i64 8, ptr %3) #28
  %4 = load i64, ptr %2, align 8, !tbaa !7
  %5 = inttoptr i64 %4 to ptr
  %6 = getelementptr inbounds nuw %struct.RBasic, ptr %5, i32 0, i32 0
  %7 = load i64, ptr %6, align 8, !tbaa !64
  %8 = and i64 %7, 31
  store i64 %8, ptr %3, align 8, !tbaa !7
  %9 = load i64, ptr %3, align 8, !tbaa !7
  %10 = trunc i64 %9 to i32
  call void @llvm.lifetime.end.p0(i64 8, ptr %3) #28
  ret i32 %10
}

; Function Attrs: inlinehint nounwind sspstrong willreturn memory(none) uwtable
define internal zeroext i1 @RB_SPECIAL_CONST_P(i64 noundef %0) #5 {
  %2 = alloca i64, align 8
  store i64 %0, ptr %2, align 8, !tbaa !7
  %3 = load i64, ptr %2, align 8, !tbaa !7
  %4 = icmp eq i64 %3, 0
  br i1 %4, label %8, label %5

5:                                                ; preds = %1
  %6 = load i64, ptr %2, align 8, !tbaa !7
  %7 = call zeroext i1 @RB_IMMEDIATE_P(i64 noundef %6) #27
  br label %8

8:                                                ; preds = %5, %1
  %9 = phi i1 [ true, %1 ], [ %7, %5 ]
  ret i1 %9
}

; Function Attrs: inlinehint nounwind sspstrong willreturn memory(read) uwtable
define internal zeroext i1 @RB_FLOAT_TYPE_P(i64 noundef %0) #4 {
  %2 = alloca i1, align 1
  %3 = alloca i64, align 8
  store i64 %0, ptr %3, align 8, !tbaa !7
  %4 = load i64, ptr %3, align 8, !tbaa !7
  %5 = call zeroext i1 @RB_FLONUM_P(i64 noundef %4) #27
  br i1 %5, label %6, label %7

6:                                                ; preds = %1
  store i1 true, ptr %2, align 1
  br label %15

7:                                                ; preds = %1
  %8 = load i64, ptr %3, align 8, !tbaa !7
  %9 = call zeroext i1 @RB_SPECIAL_CONST_P(i64 noundef %8) #27
  br i1 %9, label %10, label %11

10:                                               ; preds = %7
  store i1 false, ptr %2, align 1
  br label %15

11:                                               ; preds = %7
  %12 = load i64, ptr %3, align 8, !tbaa !7
  %13 = call i32 @RB_BUILTIN_TYPE(i64 noundef %12) #26
  %14 = icmp eq i32 %13, 4
  store i1 %14, ptr %2, align 1
  br label %15

15:                                               ; preds = %11, %10, %6
  %16 = load i1, ptr %2, align 1
  ret i1 %16
}

; Function Attrs: inlinehint nounwind sspstrong willreturn memory(read) uwtable
define internal zeroext i1 @RB_SYMBOL_P(i64 noundef %0) #4 {
  %2 = alloca i64, align 8
  store i64 %0, ptr %2, align 8, !tbaa !7
  %3 = load i64, ptr %2, align 8, !tbaa !7
  %4 = call zeroext i1 @RB_STATIC_SYM_P(i64 noundef %3) #27
  br i1 %4, label %8, label %5

5:                                                ; preds = %1
  %6 = load i64, ptr %2, align 8, !tbaa !7
  %7 = call zeroext i1 @RB_DYNAMIC_SYM_P(i64 noundef %6) #26
  br label %8

8:                                                ; preds = %5, %1
  %9 = phi i1 [ true, %1 ], [ %7, %5 ]
  ret i1 %9
}

; Function Attrs: inlinehint nounwind sspstrong willreturn memory(none) uwtable
define internal zeroext i1 @RB_FIXNUM_P(i64 noundef %0) #5 {
  %2 = alloca i64, align 8
  store i64 %0, ptr %2, align 8, !tbaa !7
  %3 = load i64, ptr %2, align 8, !tbaa !7
  %4 = and i64 %3, 1
  %5 = icmp ne i64 %4, 0
  ret i1 %5
}

; Function Attrs: inlinehint nounwind sspstrong willreturn memory(read) uwtable
define internal i64 @RB_OBJ_FROZEN_RAW(i64 noundef %0) #4 {
  %2 = alloca i64, align 8
  store i64 %0, ptr %2, align 8, !tbaa !7
  %3 = load i64, ptr %2, align 8, !tbaa !7
  %4 = call i64 @RB_FL_TEST_RAW(i64 noundef %3, i64 noundef 2048) #26
  ret i64 %4
}

; Function Attrs: alwaysinline nounwind sspstrong willreturn memory(read) uwtable
define internal zeroext i1 @RB_FL_ABLE(i64 noundef %0) #3 {
  %2 = alloca i1, align 1
  %3 = alloca i64, align 8
  store i64 %0, ptr %3, align 8, !tbaa !7
  %4 = load i64, ptr %3, align 8, !tbaa !7
  %5 = call zeroext i1 @RB_SPECIAL_CONST_P(i64 noundef %4) #27
  br i1 %5, label %6, label %7

6:                                                ; preds = %1
  store i1 false, ptr %2, align 1
  br label %16

7:                                                ; preds = %1
  br i1 true, label %8, label %11

8:                                                ; preds = %7
  %9 = load i64, ptr %3, align 8, !tbaa !7
  %10 = call zeroext i1 @rbimpl_RB_TYPE_P_fastpath(i64 noundef %9, i32 noundef 27) #26
  br i1 %10, label %14, label %15

11:                                               ; preds = %7
  %12 = load i64, ptr %3, align 8, !tbaa !7
  %13 = call zeroext i1 @RB_TYPE_P(i64 noundef %12, i32 noundef 27) #26
  br i1 %13, label %14, label %15

14:                                               ; preds = %11, %8
  store i1 false, ptr %2, align 1
  br label %16

15:                                               ; preds = %11, %8
  store i1 true, ptr %2, align 1
  br label %16

16:                                               ; preds = %15, %14, %6
  %17 = load i1, ptr %2, align 1
  ret i1 %17
}

; Function Attrs: inlinehint nounwind sspstrong uwtable
define internal zeroext i1 @RHASH_AR_TABLE_P(i64 noundef %0) #2 {
  %2 = alloca i64, align 8
  store i64 %0, ptr %2, align 8, !tbaa !7
  %3 = load i64, ptr %2, align 8, !tbaa !7
  %4 = call i64 @RB_FL_TEST_RAW(i64 noundef %3, i64 noundef 32768) #26
  %5 = icmp ne i64 %4, 0
  %6 = xor i1 %5, true
  ret i1 %6
}

; Function Attrs: inlinehint nounwind sspstrong uwtable
define internal i64 @iter_lev_in_flags(i64 noundef %0) #2 {
  %2 = alloca i64, align 8
  store i64 %0, ptr %2, align 8, !tbaa !7
  %3 = load i64, ptr %2, align 8, !tbaa !7
  %4 = inttoptr i64 %3 to ptr
  %5 = getelementptr inbounds nuw %struct.RBasic, ptr %4, i32 0, i32 0
  %6 = load i64, ptr %5, align 8, !tbaa !64
  %7 = lshr i64 %6, 25
  %8 = and i64 %7, 127
  ret i64 %8
}

; Function Attrs: inlinehint nounwind sspstrong willreturn memory(read) uwtable
define internal i64 @RB_FL_TEST_RAW(i64 noundef %0, i64 noundef %1) #4 {
  %3 = alloca i64, align 8
  %4 = alloca i64, align 8
  store i64 %0, ptr %3, align 8, !tbaa !7
  store i64 %1, ptr %4, align 8, !tbaa !7
  %5 = load i64, ptr %3, align 8, !tbaa !7
  %6 = inttoptr i64 %5 to ptr
  %7 = getelementptr inbounds nuw %struct.RBasic, ptr %6, i32 0, i32 0
  %8 = load i64, ptr %7, align 8, !tbaa !64
  %9 = load i64, ptr %4, align 8, !tbaa !7
  %10 = and i64 %8, %9
  ret i64 %10
}

; Function Attrs: inlinehint nounwind sspstrong willreturn memory(read) uwtable
define internal zeroext i1 @RB_TYPE_P(i64 noundef %0, i32 noundef %1) #4 {
  %3 = alloca i1, align 1
  %4 = alloca i64, align 8
  %5 = alloca i32, align 4
  store i64 %0, ptr %4, align 8, !tbaa !7
  store i32 %1, ptr %5, align 4, !tbaa !16
  %6 = load i32, ptr %5, align 4, !tbaa !16
  %7 = call i1 @llvm.is.constant.i32(i32 %6)
  br i1 %7, label %8, label %12

8:                                                ; preds = %2
  %9 = load i64, ptr %4, align 8, !tbaa !7
  %10 = load i32, ptr %5, align 4, !tbaa !16
  %11 = call zeroext i1 @rbimpl_RB_TYPE_P_fastpath(i64 noundef %9, i32 noundef %10) #26
  store i1 %11, ptr %3, align 1
  br label %17

12:                                               ; preds = %2
  %13 = load i32, ptr %5, align 4, !tbaa !16
  %14 = load i64, ptr %4, align 8, !tbaa !7
  %15 = call i32 @rb_type(i64 noundef %14) #26
  %16 = icmp eq i32 %13, %15
  store i1 %16, ptr %3, align 1
  br label %17

17:                                               ; preds = %12, %8
  %18 = load i1, ptr %3, align 1
  ret i1 %18
}

; Function Attrs: alwaysinline nounwind sspstrong willreturn memory(read) uwtable
define internal zeroext i1 @rbimpl_RB_TYPE_P_fastpath(i64 noundef %0, i32 noundef %1) #3 {
  %3 = alloca i1, align 1
  %4 = alloca i64, align 8
  %5 = alloca i32, align 4
  store i64 %0, ptr %4, align 8, !tbaa !7
  store i32 %1, ptr %5, align 4, !tbaa !16
  %6 = load i32, ptr %5, align 4, !tbaa !16
  %7 = icmp eq i32 %6, 18
  br i1 %7, label %8, label %11

8:                                                ; preds = %2
  %9 = load i64, ptr %4, align 8, !tbaa !7
  %10 = icmp eq i64 %9, 20
  store i1 %10, ptr %3, align 1
  br label %58

11:                                               ; preds = %2
  %12 = load i32, ptr %5, align 4, !tbaa !16
  %13 = icmp eq i32 %12, 19
  br i1 %13, label %14, label %17

14:                                               ; preds = %11
  %15 = load i64, ptr %4, align 8, !tbaa !7
  %16 = icmp eq i64 %15, 0
  store i1 %16, ptr %3, align 1
  br label %58

17:                                               ; preds = %11
  %18 = load i32, ptr %5, align 4, !tbaa !16
  %19 = icmp eq i32 %18, 17
  br i1 %19, label %20, label %23

20:                                               ; preds = %17
  %21 = load i64, ptr %4, align 8, !tbaa !7
  %22 = icmp eq i64 %21, 4
  store i1 %22, ptr %3, align 1
  br label %58

23:                                               ; preds = %17
  %24 = load i32, ptr %5, align 4, !tbaa !16
  %25 = icmp eq i32 %24, 22
  br i1 %25, label %26, label %29

26:                                               ; preds = %23
  %27 = load i64, ptr %4, align 8, !tbaa !7
  %28 = icmp eq i64 %27, 36
  store i1 %28, ptr %3, align 1
  br label %58

29:                                               ; preds = %23
  %30 = load i32, ptr %5, align 4, !tbaa !16
  %31 = icmp eq i32 %30, 21
  br i1 %31, label %32, label %35

32:                                               ; preds = %29
  %33 = load i64, ptr %4, align 8, !tbaa !7
  %34 = call zeroext i1 @RB_FIXNUM_P(i64 noundef %33) #27
  store i1 %34, ptr %3, align 1
  br label %58

35:                                               ; preds = %29
  %36 = load i32, ptr %5, align 4, !tbaa !16
  %37 = icmp eq i32 %36, 20
  br i1 %37, label %38, label %41

38:                                               ; preds = %35
  %39 = load i64, ptr %4, align 8, !tbaa !7
  %40 = call zeroext i1 @RB_SYMBOL_P(i64 noundef %39) #26
  store i1 %40, ptr %3, align 1
  br label %58

41:                                               ; preds = %35
  %42 = load i32, ptr %5, align 4, !tbaa !16
  %43 = icmp eq i32 %42, 4
  br i1 %43, label %44, label %47

44:                                               ; preds = %41
  %45 = load i64, ptr %4, align 8, !tbaa !7
  %46 = call zeroext i1 @RB_FLOAT_TYPE_P(i64 noundef %45) #26
  store i1 %46, ptr %3, align 1
  br label %58

47:                                               ; preds = %41
  %48 = load i64, ptr %4, align 8, !tbaa !7
  %49 = call zeroext i1 @RB_SPECIAL_CONST_P(i64 noundef %48) #27
  br i1 %49, label %50, label %51

50:                                               ; preds = %47
  store i1 false, ptr %3, align 1
  br label %58

51:                                               ; preds = %47
  %52 = load i32, ptr %5, align 4, !tbaa !16
  %53 = load i64, ptr %4, align 8, !tbaa !7
  %54 = call i32 @RB_BUILTIN_TYPE(i64 noundef %53) #26
  %55 = icmp eq i32 %52, %54
  br i1 %55, label %56, label %57

56:                                               ; preds = %51
  store i1 true, ptr %3, align 1
  br label %58

57:                                               ; preds = %51
  store i1 false, ptr %3, align 1
  br label %58

58:                                               ; preds = %57, %56, %50, %44, %38, %32, %26, %20, %14, %8
  %59 = load i1, ptr %3, align 1
  ret i1 %59
}

; Function Attrs: inlinehint nounwind sspstrong willreturn memory(read) uwtable
define internal zeroext i1 @RB_OBJ_FROZEN(i64 noundef %0) #4 {
  %2 = alloca i1, align 1
  %3 = alloca i64, align 8
  store i64 %0, ptr %3, align 8, !tbaa !7
  %4 = load i64, ptr %3, align 8, !tbaa !7
  %5 = call zeroext i1 @RB_FL_ABLE(i64 noundef %4) #26
  br i1 %5, label %7, label %6

6:                                                ; preds = %1
  store i1 true, ptr %2, align 1
  br label %11

7:                                                ; preds = %1
  %8 = load i64, ptr %3, align 8, !tbaa !7
  %9 = call i64 @RB_OBJ_FROZEN_RAW(i64 noundef %8) #26
  %10 = icmp ne i64 %9, 0
  store i1 %10, ptr %2, align 1
  br label %11

11:                                               ; preds = %7, %6
  %12 = load i1, ptr %2, align 1
  ret i1 %12
}

; Function Attrs: inlinehint nounwind sspstrong uwtable
define internal nonnull ptr @RHASH_ST_TABLE(i64 noundef %0) #2 {
  %2 = alloca i64, align 8
  store i64 %0, ptr %2, align 8, !tbaa !7
  %3 = load i64, ptr %2, align 8, !tbaa !7
  %4 = add i64 %3, 24
  %5 = inttoptr i64 %4 to ptr
  ret ptr %5
}

; Function Attrs: inlinehint nounwind sspstrong uwtable
define internal zeroext i1 @RHASH_ST_TABLE_P(i64 noundef %0) #2 {
  %2 = alloca i64, align 8
  store i64 %0, ptr %2, align 8, !tbaa !7
  %3 = load i64, ptr %2, align 8, !tbaa !7
  %4 = call zeroext i1 @RHASH_AR_TABLE_P(i64 noundef %3)
  %5 = xor i1 %4, true
  ret i1 %5
}

; Function Attrs: inlinehint nounwind sspstrong uwtable
define internal zeroext i1 @hash_iterating_p(i64 noundef %0) #2 {
  %2 = alloca i64, align 8
  store i64 %0, ptr %2, align 8, !tbaa !7
  %3 = load i64, ptr %2, align 8, !tbaa !7
  %4 = call i64 @iter_lev_in_flags(i64 noundef %3)
  %5 = icmp ugt i64 %4, 0
  ret i1 %5
}

; Function Attrs: inlinehint nounwind sspstrong uwtable
define internal void @rb_check_frozen_inline(i64 noundef %0) #2 {
  %2 = alloca i64, align 8
  store i64 %0, ptr %2, align 8, !tbaa !7
  %3 = load i64, ptr %2, align 8, !tbaa !7
  %4 = call zeroext i1 @RB_OBJ_FROZEN(i64 noundef %3) #26
  %5 = xor i1 %4, true
  %6 = xor i1 %5, true
  %7 = zext i1 %6 to i32
  %8 = sext i32 %7 to i64
  %9 = call i64 @llvm.expect.i64(i64 %8, i64 0)
  %10 = icmp ne i64 %9, 0
  br i1 %10, label %11, label %13

11:                                               ; preds = %1
  %12 = load i64, ptr %2, align 8, !tbaa !7
  call void @rb_error_frozen_object(i64 noundef %12) #30
  unreachable

13:                                               ; preds = %1
  br i1 true, label %14, label %17

14:                                               ; preds = %13
  %15 = load i64, ptr %2, align 8, !tbaa !7
  %16 = call zeroext i1 @rbimpl_RB_TYPE_P_fastpath(i64 noundef %15, i32 noundef 5) #26
  br i1 %16, label %20, label %24

17:                                               ; preds = %13
  %18 = load i64, ptr %2, align 8, !tbaa !7
  %19 = call zeroext i1 @RB_TYPE_P(i64 noundef %18, i32 noundef 5) #26
  br i1 %19, label %20, label %24

20:                                               ; preds = %17, %14
  %21 = load i64, ptr %2, align 8, !tbaa !7
  %22 = call i64 @RB_FL_TEST_RAW(i64 noundef %21, i64 noundef 49152) #26
  %23 = icmp ne i64 %22, 0
  br label %24

24:                                               ; preds = %20, %17, %14
  %25 = phi i1 [ false, %17 ], [ false, %14 ], [ %23, %20 ]
  %26 = xor i1 %25, true
  %27 = xor i1 %26, true
  %28 = zext i1 %27 to i32
  %29 = sext i32 %28 to i64
  %30 = call i64 @llvm.expect.i64(i64 %29, i64 0)
  %31 = icmp ne i64 %30, 0
  br i1 %31, label %32, label %34

32:                                               ; preds = %24
  %33 = load i64, ptr %2, align 8, !tbaa !7
  call void @rb_str_modify(i64 noundef %33)
  br label %34

34:                                               ; preds = %32, %24
  ret void
}

; Function Attrs: nounwind sspstrong uwtable
define internal void @compact_after_delete(i64 noundef %0) #0 {
  %2 = alloca i64, align 8
  store i64 %0, ptr %2, align 8, !tbaa !7
  %3 = load i64, ptr %2, align 8, !tbaa !7
  %4 = call zeroext i1 @hash_iterating_p(i64 noundef %3)
  br i1 %4, label %11, label %5

5:                                                ; preds = %1
  %6 = load i64, ptr %2, align 8, !tbaa !7
  %7 = call zeroext i1 @RHASH_ST_TABLE_P(i64 noundef %6)
  br i1 %7, label %8, label %11

8:                                                ; preds = %5
  %9 = load i64, ptr %2, align 8, !tbaa !7
  %10 = call nonnull ptr @RHASH_ST_TABLE(i64 noundef %9)
  call void @rb_st_compact_table(ptr noundef %10)
  br label %11

11:                                               ; preds = %8, %5, %1
  ret void
}

; Function Attrs: inlinehint nounwind sspstrong willreturn memory(none) uwtable
define internal zeroext i1 @RB_UNDEF_P(i64 noundef %0) #5 {
  %2 = alloca i64, align 8
  store i64 %0, ptr %2, align 8, !tbaa !7
  %3 = load i64, ptr %2, align 8, !tbaa !7
  %4 = icmp eq i64 %3, 36
  ret i1 %4
}

; Function Attrs: nounwind sspstrong uwtable
define dso_local i64 @rb_hash_delete_entry(i64 noundef %0, i64 noundef %1) #0 {
  %3 = alloca i64, align 8
  %4 = alloca i64, align 8
  %5 = alloca i64, align 8
  %6 = alloca i64, align 8
  %7 = alloca i64, align 8
  %8 = alloca i32, align 4
  store i64 %0, ptr %4, align 8, !tbaa !7
  store i64 %1, ptr %5, align 8, !tbaa !7
  call void @llvm.lifetime.start.p0(i64 8, ptr %6) #28
  %9 = load i64, ptr %5, align 8, !tbaa !7
  store i64 %9, ptr %6, align 8, !tbaa !7
  call void @llvm.lifetime.start.p0(i64 8, ptr %7) #28
  %10 = load i64, ptr %4, align 8, !tbaa !7
  %11 = call i32 @rb_hash_stlike_delete(i64 noundef %10, ptr noundef %6, ptr noundef %7)
  %12 = icmp ne i32 %11, 0
  br i1 %12, label %13, label %15

13:                                               ; preds = %2
  %14 = load i64, ptr %7, align 8, !tbaa !7
  store i64 %14, ptr %3, align 8
  store i32 1, ptr %8, align 4
  br label %16

15:                                               ; preds = %2
  store i64 36, ptr %3, align 8
  store i32 1, ptr %8, align 4
  br label %16

16:                                               ; preds = %15, %13
  call void @llvm.lifetime.end.p0(i64 8, ptr %7) #28
  call void @llvm.lifetime.end.p0(i64 8, ptr %6) #28
  %17 = load i64, ptr %3, align 8
  ret i64 %17
}

; Function Attrs: nounwind sspstrong uwtable
define internal void @rb_hash_modify_check(i64 noundef %0) #0 {
  %2 = alloca i64, align 8
  store i64 %0, ptr %2, align 8, !tbaa !7
  %3 = load i64, ptr %2, align 8, !tbaa !7
  call void @rb_check_frozen_inline(i64 noundef %3)
  ret void
}

; Function Attrs: nounwind sspstrong uwtable
define internal i64 @rb_hash_delete_m(i64 noundef %0, i64 noundef %1) #0 {
  %3 = alloca i64, align 8
  %4 = alloca i64, align 8
  %5 = alloca i64, align 8
  %6 = alloca i64, align 8
  %7 = alloca i32, align 4
  store i64 %0, ptr %4, align 8, !tbaa !7
  store i64 %1, ptr %5, align 8, !tbaa !7
  call void @llvm.lifetime.start.p0(i64 8, ptr %6) #28
  %8 = load i64, ptr %4, align 8, !tbaa !7
  call void @rb_hash_modify_check(i64 noundef %8)
  %9 = load i64, ptr %4, align 8, !tbaa !7
  %10 = load i64, ptr %5, align 8, !tbaa !7
  %11 = call i64 @rb_hash_delete_entry(i64 noundef %9, i64 noundef %10)
  store i64 %11, ptr %6, align 8, !tbaa !7
  %12 = load i64, ptr %6, align 8, !tbaa !7
  %13 = call zeroext i1 @RB_UNDEF_P(i64 noundef %12) #27
  br i1 %13, label %17, label %14

14:                                               ; preds = %2
  %15 = load i64, ptr %4, align 8, !tbaa !7
  call void @compact_after_delete(i64 noundef %15)
  %16 = load i64, ptr %6, align 8, !tbaa !7
  store i64 %16, ptr %3, align 8
  store i32 1, ptr %7, align 4
  br label %24

17:                                               ; preds = %2
  %18 = call i32 @rb_block_given_p()
  %19 = icmp ne i32 %18, 0
  br i1 %19, label %20, label %23

20:                                               ; preds = %17
  %21 = load i64, ptr %5, align 8, !tbaa !7
  %22 = call i64 @rb_yield(i64 noundef %21)
  store i64 %22, ptr %3, align 8
  store i32 1, ptr %7, align 4
  br label %24

23:                                               ; preds = %17
  store i64 4, ptr %3, align 8
  store i32 1, ptr %7, align 4
  br label %24

24:                                               ; preds = %23, %20, %14
  call void @llvm.lifetime.end.p0(i64 8, ptr %6) #28
  %25 = load i64, ptr %3, align 8
  ret i64 %25
}