; Function Attrs: nounwind sspstrong uwtable
define internal i64 @rb_hash_delete_m(i64 noundef %0, i64 noundef %1) #0 {
  %3 = alloca i64, align 8
  %4 = alloca i64, align 8
  %5 = icmp eq i64 %0, 0
  %6 = and i64 %0, 7
  %7 = icmp ne i64 %6, 0
  %8 = or i1 %5, %7
  br i1 %8, label %RB_OBJ_FROZEN.exit.thread.i.i, label %RB_FL_ABLE.exit.i.i.i, !prof !62

RB_FL_ABLE.exit.i.i.i:                            ; preds = %2
  %9 = inttoptr i64 %0 to ptr
  %10 = load i64, ptr %9, align 8, !tbaa !11
  %11 = and i64 %10, 31
  %.not.i.i.i = icmp eq i64 %11, 27
  %12 = and i64 %10, 2048
  %13 = icmp ne i64 %12, 0
  %or.cond.i.i = or i1 %.not.i.i.i, %13
  br i1 %or.cond.i.i, label %RB_OBJ_FROZEN.exit.thread.i.i, label %rbimpl_RB_TYPE_P_fastpath.exit.i.i, !prof !63

RB_OBJ_FROZEN.exit.thread.i.i:                    ; preds = %RB_FL_ABLE.exit.i.i.i, %2
  tail call void @rb_error_frozen_object(i64 noundef %0) #30
  unreachable

rbimpl_RB_TYPE_P_fastpath.exit.i.i:               ; preds = %RB_FL_ABLE.exit.i.i.i
  %14 = icmp ne i64 %11, 5
  %15 = and i64 %10, 49152
  %.not.i.i = icmp eq i64 %15, 0
  %or.cond8.i.i = or i1 %14, %.not.i.i
  br i1 %or.cond8.i.i, label %rb_hash_modify_check.exit, label %16, !prof !64

16:                                               ; preds = %rbimpl_RB_TYPE_P_fastpath.exit.i.i
  tail call void @rb_str_modify(i64 noundef %0) #28
  br label %rb_hash_modify_check.exit

rb_hash_modify_check.exit:                        ; preds = %rbimpl_RB_TYPE_P_fastpath.exit.i.i, %16
  call void @llvm.lifetime.start.p0(i64 8, ptr nonnull %3) #28
  store i64 %1, ptr %3, align 8, !tbaa !7
  call void @llvm.lifetime.start.p0(i64 8, ptr nonnull %4) #28
  %17 = call i32 @rb_hash_stlike_delete(i64 noundef %0, ptr noundef nonnull %3, ptr noundef nonnull %4)
  %.not.i = icmp eq i32 %17, 0
  %18 = load i64, ptr %4, align 8
  call void @llvm.lifetime.end.p0(i64 8, ptr nonnull %4) #28
  call void @llvm.lifetime.end.p0(i64 8, ptr nonnull %3) #28
  %19 = icmp eq i64 %18, 36
  %20 = select i1 %.not.i, i1 true, i1 %19
  br i1 %20, label %27, label %21

21:                                               ; preds = %rb_hash_modify_check.exit
  %22 = load i64, ptr %9, align 8, !tbaa !11
  %23 = and i64 %22, 4261445632
  %or.cond.i = icmp eq i64 %23, 32768
  br i1 %or.cond.i, label %24, label %compact_after_delete.exit

24:                                               ; preds = %21
  %25 = add i64 %0, 24
  %26 = inttoptr i64 %25 to ptr
  call void @rb_st_compact_table(ptr noundef nonnull %26) #28
  br label %compact_after_delete.exit

27:                                               ; preds = %rb_hash_modify_check.exit
  %28 = call i32 @rb_block_given_p() #28
  %.not = icmp eq i32 %28, 0
  br i1 %.not, label %compact_after_delete.exit, label %29

29:                                               ; preds = %27
  %30 = call i64 @rb_yield(i64 noundef %1) #28
  br label %compact_after_delete.exit

compact_after_delete.exit:                        ; preds = %24, %21, %27, %29
  %.0 = phi i64 [ %30, %29 ], [ 4, %27 ], [ %18, %21 ], [ %18, %24 ]
  ret i64 %.0
}